target datalayout = "e-m:e-p270:32:32-p271:32:32-p272:64:64-i64:64-i128:128-f80:128-n8:16:32:64-S128"
target triple = "x86_64-unknown-linux-gnu"

%"class.boost::detail::shared_count" = type { ptr }
%"class.boost::shared_ptr.10" = type { ptr, %"class.boost::detail::shared_count" }
%"class.QuantLib::VegaBumpCollection" = type <{ %"class.std::vector.29", %"class.boost::shared_ptr.10", i8, i8, i8, [5 x i8] }>
%"class.std::vector.29" = type { %"struct.std::_Vector_base.30" }
%"struct.std::_Vector_base.30" = type { %"struct.std::_Vector_base<QuantLib::VegaBumpCluster, std::allocator<QuantLib::VegaBumpCluster>>::_Vector_impl" }
%"struct.std::_Vector_base<QuantLib::VegaBumpCluster, std::allocator<QuantLib::VegaBumpCluster>>::_Vector_impl" = type { %"struct.std::_Vector_base<QuantLib::VegaBumpCluster, std::allocator<QuantLib::VegaBumpCluster>>::_Vector_impl_data" }
%"struct.std::_Vector_base<QuantLib::VegaBumpCluster, std::allocator<QuantLib::VegaBumpCluster>>::_Vector_impl_data" = type { ptr, ptr, ptr }

; Function Attrs: mustprogress nounwind uwtable
define linkonce_odr noundef i64 @_ZNKSt6vectorIN8QuantLib15VegaBumpClusterESaIS1_EE4sizeEv(ptr noundef nonnull align 8 dereferenceable(24) %this) #4 comdat align 2 {
entry:
  %this.addr = alloca ptr, align 8
  store ptr %this, ptr %this.addr, align 8, !tbaa !3
  %this1 = load ptr, ptr %this.addr, align 8
  %_M_impl = getelementptr inbounds nuw %"struct.std::_Vector_base.30", ptr %this1, i32 0, i32 0
  %_M_finish = getelementptr inbounds nuw %"struct.std::_Vector_base<QuantLib::VegaBumpCluster, std::allocator<QuantLib::VegaBumpCluster>>::_Vector_impl_data", ptr %_M_impl, i32 0, i32 1
  %0 = load ptr, ptr %_M_finish, align 8, !tbaa !39
  %_M_impl2 = getelementptr inbounds nuw %"struct.std::_Vector_base.30", ptr %this1, i32 0, i32 0
  %_M_start = getelementptr inbounds nuw %"struct.std::_Vector_base<QuantLib::VegaBumpCluster, std::allocator<QuantLib::VegaBumpCluster>>::_Vector_impl_data", ptr %_M_impl2, i32 0, i32 0
  %1 = load ptr, ptr %_M_start, align 8, !tbaa !41
  %sub.ptr.lhs.cast = ptrtoint ptr %0 to i64
  %sub.ptr.rhs.cast = ptrtoint ptr %1 to i64
  %sub.ptr.sub = sub i64 %sub.ptr.lhs.cast, %sub.ptr.rhs.cast
  %sub.ptr.div = sdiv exact i64 %sub.ptr.sub, 48
  ret i64 %sub.ptr.div
}

; Function Attrs: mustprogress nounwind uwtable
define noundef i64 @_ZNK8QuantLib18VegaBumpCollection11numberBumpsEv(ptr noundef nonnull align 8 dereferenceable(43) %this) #4 align 2 {
entry:
  %this.addr = alloca ptr, align 8
  store ptr %this, ptr %this.addr, align 8, !tbaa !3
  %this1 = load ptr, ptr %this.addr, align 8
  %allBumps_ = getelementptr inbounds nuw %"class.QuantLib::VegaBumpCollection", ptr %this1, i32 0, i32 0
  %call = call noundef i64 @_ZNKSt6vectorIN8QuantLib15VegaBumpClusterESaIS1_EE4sizeEv(ptr noundef nonnull align 8 dereferenceable(24) %allBumps_) #14
  ret i64 %call
}