; Function Attrs: mustprogress nofree norecurse nosync nounwind willreturn memory(argmem: read) uwtable
define noundef range(i64 -192153584101141162, 192153584101141163) i64 @_ZNK8QuantLib18VegaBumpCollection11numberBumpsEv(ptr nocapture noundef nonnull readonly align 8 dereferenceable(43) %this) local_unnamed_addr #8 align 2 {
entry:
  %_M_finish.i = getelementptr inbounds nuw i8, ptr %this, i64 8
  %0 = load ptr, ptr %_M_finish.i, align 8, !tbaa !36
  %1 = load ptr, ptr %this, align 8, !tbaa !42
  %sub.ptr.lhs.cast.i = ptrtoint ptr %0 to i64
  %sub.ptr.rhs.cast.i = ptrtoint ptr %1 to i64
  %sub.ptr.sub.i = sub i64 %sub.ptr.lhs.cast.i, %sub.ptr.rhs.cast.i
  %sub.ptr.div.i = sdiv exact i64 %sub.ptr.sub.i, 48
  ret i64 %sub.ptr.div.i
}